Certificate:
    Data:
        Version: 3 (0x2)
        Serial Number: 2 (0x2)
        Signature Algorithm: sha1WithRSAEncryption
        Issuer: C=FR, ST=France, L=Metz, O=Progdigy Inc, CN=Progdigy Inc/emailAddress=hgourvest@gmail.com
        Validity
            Not Before: Apr 12 07:47:00 2011 GMT
            Not After : Apr 11 07:47:00 2012 GMT
        Subject: C=FR, ST=France, O=Progdigy Inc, CN=Henri Gourvest/emailAddress=hgourvest@gmail.com
        Subject Public Key Info:
            Public Key Algorithm: rsaEncryption
            RSA Public Key: (1024 bit)
                Modulus (1024 bit):
                    00:db:eb:81:8b:b8:1e:20:c7:9f:04:22:0a:25:f0:
                    2f:6a:0b:a9:56:73:44:ad:9f:66:cd:32:8e:fe:fb:
                    76:cc:14:73:14:f4:ef:f7:ac:30:63:7e:21:1b:0e:
                    b2:6f:5f:2d:89:bd:0f:96:79:fa:dc:ef:9e:b1:09:
                    31:5a:3f:2f:d3:5d:45:bf:3f:e4:df:41:f7:7a:69:
                    97:64:2f:62:42:3d:71:0d:06:af:62:b9:e2:be:3b:
                    a7:db:4b:6a:44:5e:9f:f7:15:e0:f2:cd:34:ba:e5:
                    0e:ed:c3:36:a8:f5:9f:9c:98:cc:26:69:7a:42:00:
                    b0:1e:92:55:28:00:8b:f0:4b
                Exponent: 65537 (0x10001)
        X509v3 extensions:
            X509v3 Basic Constraints: 
                CA:FALSE
            Netscape Comment: 
                OpenSSL Generated Certificate
            X509v3 Subject Key Identifier: 
                F9:67:0C:39:1F:6E:8E:13:47:A5:60:EB:42:A7:3F:36:99:AD:A6:FD
            X509v3 Authority Key Identifier: 
                keyid:36:9A:D3:0E:CE:FA:83:E3:24:3B:B9:A1:34:B2:6F:76:A5:0F:EF:C4

    Signature Algorithm: sha1WithRSAEncryption
        4d:1c:7b:db:30:f2:0e:b9:b1:68:18:f2:ec:fd:2d:9f:bf:c3:
        f5:ff:7d:46:b9:f1:e8:92:28:d7:7f:7c:60:cb:6b:56:e9:46:
        39:58:ce:78:74:e6:fb:01:24:c7:f8:2c:33:3e:dd:ff:78:57:
        d5:96:a0:06:e7:d3:cf:d3:76:4d:c0:ec:30:74:07:6e:46:f7:
        f9:df:47:88:3e:b9:d2:d0:7e:34:e0:f4:ea:e2:bd:cc:72:e4:
        af:42:be:b5:5d:49:99:e0:ea:db:5e:fb:61:31:8a:67:4f:a9:
        78:e5:a7:7b:32:1d:ca:19:f6:d1:39:6b:b3:e7:40:0e:e5:e4:
        f7:d2
-----BEGIN CERTIFICATE-----
MIIC4jCCAkugAwIBAgIBAjANBgkqhkiG9w0BAQUFADB/MQswCQYDVQQGEwJGUjEP
MA0GA1UECBMGRnJhbmNlMQ0wCwYDVQQHEwRNZXR6MRUwEwYDVQQKEwxQcm9nZGln
eSBJbmMxFTATBgNVBAMTDFByb2dkaWd5IEluYzEiMCAGCSqGSIb3DQEJARYTaGdv
dXJ2ZXN0QGdtYWlsLmNvbTAeFw0xMTA0MTIwNzQ3MDBaFw0xMjA0MTEwNzQ3MDBa
MHIxCzAJBgNVBAYTAkZSMQ8wDQYDVQQIEwZGcmFuY2UxFTATBgNVBAoTDFByb2dk
aWd5IEluYzEXMBUGA1UEAxMOSGVucmkgR291cnZlc3QxIjAgBgkqhkiG9w0BCQEW
E2hnb3VydmVzdEBnbWFpbC5jb20wgZ8wDQYJKoZIhvcNAQEBBQADgY0AMIGJAoGB
ANvrgYu4HiDHnwQiCiXwL2oLqVZzRK2fZs0yjv77dswUcxT07/esMGN+IRsOsm9f
LYm9D5Z5+tzvnrEJMVo/L9NdRb8/5N9B93ppl2QvYkI9cQ0Gr2K54r47p9tLakRe
n/cV4PLNNLrlDu3DNqj1n5yYzCZpekIAsB6SVSgAi/BLAgMBAAGjezB5MAkGA1Ud
EwQCMAAwLAYJYIZIAYb4QgENBB8WHU9wZW5TU0wgR2VuZXJhdGVkIENlcnRpZmlj
YXRlMB0GA1UdDgQWBBT5Zww5H26OE0elYOtCpz82ma2m/TAfBgNVHSMEGDAWgBQ2
mtMOzvqD4yQ7uaE0sm92pQ/vxDANBgkqhkiG9w0BAQUFAAOBgQBNHHvbMPIOubFo
GPLs/S2fv8P1/31GufHokijXf3xgy2tW6UY5WM54dOb7ASTH+CwzPt3/eFfVlqAG
59PP03ZNwOwwdAduRvf530eIPrnS0H404PTq4r3McuSvQr61XUmZ4OrbXvthMYpn
T6l45ad7Mh3KGfbROWuz50AO5eT30g==
-----END CERTIFICATE-----
