Certificate:
    Data:
        Version: 3 (0x2)
        Serial Number: 1 (0x1)
        Signature Algorithm: sha1WithRSAEncryption
        Issuer: C=FR, ST=France, L=Metz, O=Progdigy Inc, CN=Progdigy Inc Root CA/emailAddress=hgourvest@gmail.com
        Validity
            Not Before: Apr  6 09:57:32 2011 GMT
            Not After : Apr  5 09:57:32 2012 GMT
        Subject: C=FR, ST=France, O=Progdigy Inc, CN=localhost
        Subject Public Key Info:
            Public Key Algorithm: rsaEncryption
            RSA Public Key: (1024 bit)
                Modulus (1024 bit):
                    00:b3:38:b9:8e:08:b9:e7:1b:50:95:63:87:12:c5:
                    f1:ab:99:a9:23:b2:6e:f7:63:80:4d:c5:6c:2b:87:
                    68:d6:1b:df:50:3e:01:92:c8:e1:ef:93:f9:59:e5:
                    57:ff:e1:77:06:59:cd:99:da:db:35:4b:6b:31:de:
                    97:e1:9c:4d:ff:69:00:53:92:93:eb:c6:04:38:82:
                    01:e9:01:23:cf:63:36:5b:a6:eb:fd:58:c7:49:4e:
                    76:6c:b7:4a:e6:57:0c:6c:8e:da:18:9e:e0:29:bc:
                    83:84:e1:2a:0b:65:f1:33:6b:7b:16:02:87:65:e8:
                    8b:25:a5:bc:ed:38:ba:ff:c3
                Exponent: 65537 (0x10001)
        X509v3 extensions:
            X509v3 Basic Constraints: 
                CA:FALSE
            X509v3 Subject Key Identifier: 
                72:5B:A2:CA:D9:52:DC:CF:9A:61:C7:EC:F2:CC:E0:1C:D1:93:FB:F6
            X509v3 Authority Key Identifier: 
                keyid:4B:54:F5:35:90:64:1B:2A:73:D0:0F:6F:67:F3:72:26:EC:0A:4A:96
                DirName:/C=FR/ST=France/L=Metz/O=Progdigy Inc/CN=Progdigy Inc Root CA/emailAddress=hgourvest@gmail.com
                serial:92:85:C4:0C:2B:5B:B2:40

            Netscape CA Revocation Url: 
                https://www.progdigy.com/revoke.pem
    Signature Algorithm: sha1WithRSAEncryption
        4e:f7:0c:cc:3e:4c:0d:32:9a:e6:5e:65:16:d6:ce:25:6d:23:
        5d:7f:bc:65:79:42:eb:90:c5:94:f8:bf:3b:7f:5b:5e:f9:e8:
        c3:7a:74:41:1b:09:aa:37:a9:52:eb:89:47:a5:d3:1a:54:7b:
        92:8c:16:9a:96:4f:38:5f:57:1d:48:a1:57:8f:27:1e:74:a3:
        8f:54:b8:be:7d:d1:93:3e:25:79:a3:a4:91:76:30:08:9c:c9:
        af:1f:0e:8c:ea:66:4d:8a:03:fa:cb:68:3e:a3:5d:4e:ac:75:
        38:df:36:42:21:b7:1b:3a:c2:d0:4d:11:58:14:40:4f:e3:02:
        d4:d8
-----BEGIN CERTIFICATE-----
MIIDajCCAtOgAwIBAgIBATANBgkqhkiG9w0BAQUFADCBhzELMAkGA1UEBhMCRlIx
DzANBgNVBAgTBkZyYW5jZTENMAsGA1UEBxMETWV0ejEVMBMGA1UEChMMUHJvZ2Rp
Z3kgSW5jMR0wGwYDVQQDExRQcm9nZGlneSBJbmMgUm9vdCBDQTEiMCAGCSqGSIb3
DQEJARYTaGdvdXJ2ZXN0QGdtYWlsLmNvbTAeFw0xMTA0MDYwOTU3MzJaFw0xMjA0
MDUwOTU3MzJaMEkxCzAJBgNVBAYTAkZSMQ8wDQYDVQQIEwZGcmFuY2UxFTATBgNV
BAoTDFByb2dkaWd5IEluYzESMBAGA1UEAxMJbG9jYWxob3N0MIGfMA0GCSqGSIb3
DQEBAQUAA4GNADCBiQKBgQCzOLmOCLnnG1CVY4cSxfGrmakjsm73Y4BNxWwrh2jW
G99QPgGSyOHvk/lZ5Vf/4XcGWc2Z2ts1S2sx3pfhnE3/aQBTkpPrxgQ4ggHpASPP
YzZbpuv9WMdJTnZst0rmVwxsjtoYnuApvIOE4SoLZfEza3sWAodl6IslpbztOLr/
wwIDAQABo4IBITCCAR0wCQYDVR0TBAIwADAdBgNVHQ4EFgQUcluiytlS3M+aYcfs
8szgHNGT+/YwgbwGA1UdIwSBtDCBsYAUS1T1NZBkGypz0A9vZ/NyJuwKSpahgY2k
gYowgYcxCzAJBgNVBAYTAkZSMQ8wDQYDVQQIEwZGcmFuY2UxDTALBgNVBAcTBE1l
dHoxFTATBgNVBAoTDFByb2dkaWd5IEluYzEdMBsGA1UEAxMUUHJvZ2RpZ3kgSW5j
IFJvb3QgQ0ExIjAgBgkqhkiG9w0BCQEWE2hnb3VydmVzdEBnbWFpbC5jb22CCQCS
hcQMK1uyQDAyBglghkgBhvhCAQQEJRYjaHR0cHM6Ly93d3cucHJvZ2RpZ3kuY29t
L3Jldm9rZS5wZW0wDQYJKoZIhvcNAQEFBQADgYEATvcMzD5MDTKa5l5lFtbOJW0j
XX+8ZXlC65DFlPi/O39bXvnow3p0QRsJqjepUuuJR6XTGlR7kowWmpZPOF9XHUih
V48nHnSjj1S4vn3Rkz4leaOkkXYwCJzJrx8OjOpmTYoD+stoPqNdTqx1ON82QiG3
GzrC0E0RWBRAT+MC1Ng=
-----END CERTIFICATE-----
