Certificate:
    Data:
        Version: 3 (0x2)
        Serial Number: 1 (0x1)
        Signature Algorithm: sha1WithRSAEncryption
        Issuer: C=FR, ST=France, L=Metz, O=Progdigy Inc, CN=Progdigy Inc/emailAddress=hgourvest@gmail.com
        Validity
            Not Before: Apr 12 07:40:29 2011 GMT
            Not After : Apr 11 07:40:29 2012 GMT
        Subject: C=FR, ST=France, O=Progdigy Inc, CN=localhost/emailAddress=hgourvest@gmail.com
        Subject Public Key Info:
            Public Key Algorithm: rsaEncryption
            RSA Public Key: (1024 bit)
                Modulus (1024 bit):
                    00:d5:77:99:d6:cb:a6:9f:6e:29:26:76:75:50:7a:
                    52:1b:a2:66:5c:cf:71:8e:5a:6a:5e:2c:a7:44:eb:
                    dd:fb:0c:32:6c:70:9a:2d:a1:a4:85:c0:b3:18:52:
                    a6:5b:27:0b:9e:93:5b:04:4f:07:66:77:10:3f:5e:
                    89:e5:f8:b4:9f:bb:ba:02:1c:11:68:d3:ef:b2:8d:
                    53:3c:ff:a8:bd:01:f1:bf:53:d6:4b:58:02:1b:f2:
                    cd:1d:8f:4c:7b:bc:f1:c9:b9:78:62:89:04:b6:23:
                    27:13:37:dc:18:fd:cf:52:db:78:6b:2e:44:06:27:
                    f4:de:db:81:2e:5d:d4:3e:d9
                Exponent: 65537 (0x10001)
        X509v3 extensions:
            X509v3 Basic Constraints: 
                CA:FALSE
            Netscape Comment: 
                OpenSSL Generated Certificate
            X509v3 Subject Key Identifier: 
                B7:60:2A:CF:FF:72:37:2D:F8:3F:FB:19:85:4E:AC:C9:DD:2B:15:A8
            X509v3 Authority Key Identifier: 
                keyid:36:9A:D3:0E:CE:FA:83:E3:24:3B:B9:A1:34:B2:6F:76:A5:0F:EF:C4

    Signature Algorithm: sha1WithRSAEncryption
        b4:60:14:e4:a4:9a:96:09:92:65:d0:08:03:19:8a:a2:74:17:
        dd:c6:0e:a6:99:a5:4b:e3:b3:ef:2f:d3:f4:a7:5d:30:4d:d1:
        a6:af:f4:61:59:2f:06:ba:00:37:bd:ce:aa:1b:96:d0:b7:23:
        9f:54:7f:29:37:a4:ab:fd:c7:fc:61:02:e7:31:ef:e3:57:1a:
        db:58:c7:b3:a6:d2:de:7a:5c:ab:65:aa:48:59:2f:e8:63:8e:
        99:3c:73:ae:0f:4c:90:39:16:19:65:ac:b1:52:83:a1:40:50:
        00:d5:57:dd:9e:f4:63:9b:8e:6b:70:66:ec:93:75:ba:61:39:
        f2:ff
-----BEGIN CERTIFICATE-----
MIIC3TCCAkagAwIBAgIBATANBgkqhkiG9w0BAQUFADB/MQswCQYDVQQGEwJGUjEP
MA0GA1UECBMGRnJhbmNlMQ0wCwYDVQQHEwRNZXR6MRUwEwYDVQQKEwxQcm9nZGln
eSBJbmMxFTATBgNVBAMTDFByb2dkaWd5IEluYzEiMCAGCSqGSIb3DQEJARYTaGdv
dXJ2ZXN0QGdtYWlsLmNvbTAeFw0xMTA0MTIwNzQwMjlaFw0xMjA0MTEwNzQwMjla
MG0xCzAJBgNVBAYTAkZSMQ8wDQYDVQQIEwZGcmFuY2UxFTATBgNVBAoTDFByb2dk
aWd5IEluYzESMBAGA1UEAxMJbG9jYWxob3N0MSIwIAYJKoZIhvcNAQkBFhNoZ291
cnZlc3RAZ21haWwuY29tMIGfMA0GCSqGSIb3DQEBAQUAA4GNADCBiQKBgQDVd5nW
y6afbikmdnVQelIbomZcz3GOWmpeLKdE6937DDJscJotoaSFwLMYUqZbJwuek1sE
TwdmdxA/Xonl+LSfu7oCHBFo0++yjVM8/6i9AfG/U9ZLWAIb8s0dj0x7vPHJuXhi
iQS2IycTN9wY/c9S23hrLkQGJ/Te24EuXdQ+2QIDAQABo3sweTAJBgNVHRMEAjAA
MCwGCWCGSAGG+EIBDQQfFh1PcGVuU1NMIEdlbmVyYXRlZCBDZXJ0aWZpY2F0ZTAd
BgNVHQ4EFgQUt2Aqz/9yNy34P/sZhU6syd0rFagwHwYDVR0jBBgwFoAUNprTDs76
g+MkO7mhNLJvdqUP78QwDQYJKoZIhvcNAQEFBQADgYEAtGAU5KSalgmSZdAIAxmK
onQX3cYOppmlS+Oz7y/T9KddME3Rpq/0YVkvBroAN73OqhuW0Lcjn1R/KTekq/3H
/GEC5zHv41ca21jHs6bS3npcq2WqSFkv6GOOmTxzrg9MkDkWGWWssVKDoUBQANVX
3Z70Y5uOa3Bm7JN1umE58v8=
-----END CERTIFICATE-----
